target datalayout = "e-m:e-p270:32:32-p271:32:32-p272:64:64-i64:64-i128:128-f80:128-n8:16:32:64-S128"
target triple = "x86_64-pc-linux-gnu"

%struct.AVFormatContext = type { ptr, ptr, ptr, ptr, ptr, i32, i32, ptr, i32, ptr, i32, ptr, ptr, i64, i64, i64, i32, i32, i32, i64, i64, ptr, i32, i32, ptr, i32, i32, i32, i32, ptr, i64, i32, i32, %struct.AVIOInterruptCB, i32, i32, i32, i32, i64, i32, i32, i32, i32, i32, i32, i32, i32, i32, i32, i32, i32, i64, i32, i32, i32, i32, i32, ptr, ptr, ptr, ptr, i32, ptr, ptr, ptr, ptr, i32, ptr, ptr, i64, ptr, ptr, ptr, i64 }
%struct.AVIOInterruptCB = type { ptr, ptr }
%struct.NSVContext = type { i32, i32, ptr, i32, i32, [2 x %struct.AVPacket], i64, i32, i32, i16, i16, i16, %struct.AVRational, ptr, i32 }
%struct.AVPacket = type { ptr, i64, i64, ptr, i32, i32, i32, ptr, i32, i64, i64, ptr, ptr, %struct.AVRational }
%struct.AVRational = type { i32, i32 }

; Function Attrs: nounwind uwtable
define internal i32 @nsv_read_close(ptr noundef %0) #0 {
  %2 = alloca ptr, align 8
  %3 = alloca ptr, align 8
  store ptr %0, ptr %2, align 8, !tbaa !19
  call void @llvm.lifetime.start.p0(i64 8, ptr %3) #8
  %4 = load ptr, ptr %2, align 8, !tbaa !19
  %5 = getelementptr inbounds nuw %struct.AVFormatContext, ptr %4, i32 0, i32 3
  %6 = load ptr, ptr %5, align 8, !tbaa !21
  store ptr %6, ptr %3, align 8, !tbaa !36
  %7 = load ptr, ptr %3, align 8, !tbaa !36
  %8 = getelementptr inbounds nuw %struct.NSVContext, ptr %7, i32 0, i32 2
  call void @av_freep(ptr noundef %8)
  %9 = load ptr, ptr %3, align 8, !tbaa !36
  %10 = getelementptr inbounds nuw %struct.NSVContext, ptr %9, i32 0, i32 13
  call void @av_freep(ptr noundef %10)
  %11 = load ptr, ptr %3, align 8, !tbaa !36
  %12 = getelementptr inbounds nuw %struct.NSVContext, ptr %11, i32 0, i32 5
  %13 = getelementptr inbounds [2 x %struct.AVPacket], ptr %12, i64 0, i64 0
  %14 = getelementptr inbounds nuw %struct.AVPacket, ptr %13, i32 0, i32 3
  %15 = load ptr, ptr %14, align 8, !tbaa !43
  %16 = icmp ne ptr %15, null
  br i1 %16, label %17, label %21

17:                                               ; preds = %1
  %18 = load ptr, ptr %3, align 8, !tbaa !36
  %19 = getelementptr inbounds nuw %struct.NSVContext, ptr %18, i32 0, i32 5
  %20 = getelementptr inbounds [2 x %struct.AVPacket], ptr %19, i64 0, i64 0
  call void @av_packet_unref(ptr noundef %20)
  br label %21

21:                                               ; preds = %17, %1
  %22 = load ptr, ptr %3, align 8, !tbaa !36
  %23 = getelementptr inbounds nuw %struct.NSVContext, ptr %22, i32 0, i32 5
  %24 = getelementptr inbounds [2 x %struct.AVPacket], ptr %23, i64 0, i64 1
  %25 = getelementptr inbounds nuw %struct.AVPacket, ptr %24, i32 0, i32 3
  %26 = load ptr, ptr %25, align 8, !tbaa !43
  %27 = icmp ne ptr %26, null
  br i1 %27, label %28, label %32

28:                                               ; preds = %21
  %29 = load ptr, ptr %3, align 8, !tbaa !36
  %30 = getelementptr inbounds nuw %struct.NSVContext, ptr %29, i32 0, i32 5
  %31 = getelementptr inbounds [2 x %struct.AVPacket], ptr %30, i64 0, i64 1
  call void @av_packet_unref(ptr noundef %31)
  br label %32

32:                                               ; preds = %28, %21
  call void @llvm.lifetime.end.p0(i64 8, ptr %3) #8
  ret i32 0
}