; Function Attrs: nounwind uwtable
define internal noundef i32 @nsv_read_close(ptr noundef readonly captures(none) %0) #0 {
  %2 = getelementptr inbounds nuw i8, ptr %0, i64 24
  %3 = load ptr, ptr %2, align 8, !tbaa !16
  %4 = getelementptr inbounds nuw i8, ptr %3, i64 8
  tail call void @av_freep(ptr noundef nonnull %4) #8
  %5 = getelementptr inbounds nuw i8, ptr %3, i64 264
  tail call void @av_freep(ptr noundef nonnull %5) #8
  %6 = getelementptr inbounds nuw i8, ptr %3, i64 48
  %7 = load ptr, ptr %6, align 8, !tbaa !36
  %.not = icmp eq ptr %7, null
  br i1 %.not, label %10, label %8

8:                                                ; preds = %1
  %9 = getelementptr inbounds nuw i8, ptr %3, i64 24
  tail call void @av_packet_unref(ptr noundef nonnull %9) #8
  br label %10

10:                                               ; preds = %8, %1
  %11 = getelementptr inbounds nuw i8, ptr %3, i64 152
  %12 = load ptr, ptr %11, align 8, !tbaa !36
  %.not7 = icmp eq ptr %12, null
  br i1 %.not7, label %15, label %13

13:                                               ; preds = %10
  %14 = getelementptr inbounds nuw i8, ptr %3, i64 128
  tail call void @av_packet_unref(ptr noundef nonnull %14) #8
  br label %15

15:                                               ; preds = %13, %10
  ret i32 0
}